; Function Attrs: mustprogress uwtable
define void @_ZNK8facebook5velox9RowVector27updateContainsLazyNotLoadedEv(ptr nocapture noundef nonnull align 8 dereferenceable(138) %this) local_unnamed_addr #0 align 2 {
entry:
  %childrenLoaded_ = getelementptr inbounds i8, ptr %this, i64 137
  store i8 0, ptr %childrenLoaded_, align 1
  %containsLazyNotLoaded_ = getelementptr inbounds i8, ptr %this, i64 136
  store i8 0, ptr %containsLazyNotLoaded_, align 8
  %children_ = getelementptr inbounds i8, ptr %this, i64 112
  %0 = load ptr, ptr %children_, align 8
  %_M_finish.i = getelementptr inbounds i8, ptr %this, i64 120
  %1 = load ptr, ptr %_M_finish.i, align 8
  %cmp.i.not6 = icmp eq ptr %0, %1
  br i1 %cmp.i.not6, label %for.end, label %for.body

for.body:                                         ; preds = %entry, %for.inc
  %__begin2.sroa.0.07 = phi ptr [ %incdec.ptr.i, %for.inc ], [ %0, %entry ]
  %2 = load ptr, ptr %__begin2.sroa.0.07, align 8
  %cmp.i3.not = icmp eq ptr %2, null
  br i1 %cmp.i3.not, label %for.inc, label %land.lhs.true

land.lhs.true:                                    ; preds = %for.body
  %call8 = tail call noundef zeroext i1 @_ZN8facebook5velox15isLazyNotLoadedERKNS0_10BaseVectorE(ptr noundef nonnull align 8 dereferenceable(99) %2)
  br i1 %call8, label %if.then, label %for.inc

if.then:                                          ; preds = %land.lhs.true
  store i8 1, ptr %containsLazyNotLoaded_, align 8
  br label %for.end

for.inc:                                          ; preds = %for.body, %land.lhs.true
  %incdec.ptr.i = getelementptr inbounds i8, ptr %__begin2.sroa.0.07, i64 16
  %cmp.i.not = icmp eq ptr %incdec.ptr.i, %1
  br i1 %cmp.i.not, label %for.end, label %for.body

for.end:                                          ; preds = %for.inc, %entry, %if.then
  ret void
}